#include <math.h>
#include <stdio.h>
#include <stdlib.h>
#include <string.h>
#include <iostream>
using namespace std;

int main()
{
	char str[101];//??????
	cin.getline(str,101);  // ?????
	int len;       //??????
	len=strlen(str);    //???????
	for(int i=0;i<=len;i++)     //??????i
		if(str[i]==' '&&str[i+1]==' ')     //???i????i+1??????????????
		{
			for(int j=i+1;j<len;j++)//??????j,
				str[j]=str[j+1];//?i+2?????????
			i=i-1;  //?i??
		}
		cout<<str<<endl;//????????
		return 0;
}
